; Function Attrs: nofree norecurse nosync nounwind memory(none) uwtable
define dso_local ptr @slurm_container_status_to_str(i32 noundef %0) local_unnamed_addr #2 {
  br label %3

2:                                                ; preds = %3
  %indvars.iv.next = add nuw nsw i64 %indvars.iv, 1
  %exitcond = icmp eq i64 %indvars.iv.next, 8
  br i1 %exitcond, label %.loopexit, label %3, !llvm.loop !29

3:                                                ; preds = %1, %2
  %indvars.iv = phi i64 [ 0, %1 ], [ %indvars.iv.next, %2 ]
  %4 = getelementptr inbounds nuw [8 x %struct.anon.0], ptr @slurm_container_status_to_str.status_str, i64 0, i64 %indvars.iv
  %5 = load i32, ptr %4, align 16
  %6 = icmp eq i32 %0, %5
  br i1 %6, label %7, label %2

7:                                                ; preds = %3
  %8 = getelementptr inbounds nuw i8, ptr %4, i64 8
  %9 = load ptr, ptr %8, align 8
  br label %.loopexit

.loopexit:                                        ; preds = %2, %7
  %spec.select = phi ptr [ %9, %7 ], [ @.str.22, %2 ]
  ret ptr %spec.select
}